target datalayout = "e-m:e-p270:32:32-p271:32:32-p272:64:64-i64:64-i128:128-f80:128-n8:16:32:64-S128"
target triple = "x86_64-pc-linux-gnu"

%struct.strbuf = type { i64, i64, ptr }
%struct.island_load_data = type { ptr, ptr, i64, i64 }
%struct.re_pattern_buffer = type { ptr, i64, i64, i64, ptr, ptr, i64, i8 }

@core_island_name = internal global ptr null, align 8
@.str.3 = private unnamed_addr constant [27 x i8] c"size_t overflow: %lu * %lu\00", align 1
@.str.6 = private unnamed_addr constant [12 x i8] c"pack.island\00", align 1
@__const.island_config_callback.re = private unnamed_addr constant %struct.strbuf { i64 0, i64 0, ptr @strbuf_slopbuf }, align 8
@.str.7 = private unnamed_addr constant [41 x i8] c"failed to load island regex for '%s': %s\00", align 1
@.str.8 = private unnamed_addr constant [16 x i8] c"pack.islandcore\00", align 1

; Function Attrs: inlinehint nounwind uwtable
define internal i64 @strbuf_avail(ptr noundef %0) #2 {
  %2 = alloca ptr, align 8
  store ptr %0, ptr %2, align 8, !tbaa !130
  %3 = load ptr, ptr %2, align 8, !tbaa !130
  %4 = getelementptr inbounds nuw %struct.strbuf, ptr %3, i32 0, i32 0
  %5 = load i64, ptr %4, align 8, !tbaa !132
  %6 = icmp ne i64 %5, 0
  br i1 %6, label %7, label %16

7:                                                ; preds = %1
  %8 = load ptr, ptr %2, align 8, !tbaa !130
  %9 = getelementptr inbounds nuw %struct.strbuf, ptr %8, i32 0, i32 0
  %10 = load i64, ptr %9, align 8, !tbaa !132
  %11 = load ptr, ptr %2, align 8, !tbaa !130
  %12 = getelementptr inbounds nuw %struct.strbuf, ptr %11, i32 0, i32 1
  %13 = load i64, ptr %12, align 8, !tbaa !84
  %14 = sub i64 %10, %13
  %15 = sub i64 %14, 1
  br label %17

16:                                               ; preds = %1
  br label %17

17:                                               ; preds = %16, %7
  %18 = phi i64 [ %15, %7 ], [ 0, %16 ]
  ret i64 %18
}

; Function Attrs: inlinehint nounwind uwtable
define internal void @strbuf_addstr(ptr noundef %0, ptr noundef %1) #2 {
  %3 = alloca ptr, align 8
  %4 = alloca ptr, align 8
  store ptr %0, ptr %3, align 8, !tbaa !130
  store ptr %1, ptr %4, align 8, !tbaa !63
  %5 = load ptr, ptr %3, align 8, !tbaa !130
  %6 = load ptr, ptr %4, align 8, !tbaa !63
  %7 = load ptr, ptr %4, align 8, !tbaa !63
  %8 = call i64 @strlen(ptr noundef %7) #12
  call void @strbuf_add(ptr noundef %5, ptr noundef %6, i64 noundef %8)
  ret void
}

; Function Attrs: inlinehint nounwind uwtable
define internal void @strbuf_addch(ptr noundef %0, i32 noundef %1) #2 {
  %3 = alloca ptr, align 8
  %4 = alloca i32, align 4
  store ptr %0, ptr %3, align 8, !tbaa !130
  store i32 %1, ptr %4, align 4, !tbaa !13
  %5 = load ptr, ptr %3, align 8, !tbaa !130
  %6 = call i64 @strbuf_avail(ptr noundef %5)
  %7 = icmp ne i64 %6, 0
  br i1 %7, label %10, label %8

8:                                                ; preds = %2
  %9 = load ptr, ptr %3, align 8, !tbaa !130
  call void @strbuf_grow(ptr noundef %9, i64 noundef 1)
  br label %10

10:                                               ; preds = %8, %2
  %11 = load i32, ptr %4, align 4, !tbaa !13
  %12 = trunc i32 %11 to i8
  %13 = load ptr, ptr %3, align 8, !tbaa !130
  %14 = getelementptr inbounds nuw %struct.strbuf, ptr %13, i32 0, i32 2
  %15 = load ptr, ptr %14, align 8, !tbaa !79
  %16 = load ptr, ptr %3, align 8, !tbaa !130
  %17 = getelementptr inbounds nuw %struct.strbuf, ptr %16, i32 0, i32 1
  %18 = load i64, ptr %17, align 8, !tbaa !84
  %19 = add i64 %18, 1
  store i64 %19, ptr %17, align 8, !tbaa !84
  %20 = getelementptr inbounds nuw i8, ptr %15, i64 %18
  store i8 %12, ptr %20, align 1, !tbaa !12
  %21 = load ptr, ptr %3, align 8, !tbaa !130
  %22 = getelementptr inbounds nuw %struct.strbuf, ptr %21, i32 0, i32 2
  %23 = load ptr, ptr %22, align 8, !tbaa !79
  %24 = load ptr, ptr %3, align 8, !tbaa !130
  %25 = getelementptr inbounds nuw %struct.strbuf, ptr %24, i32 0, i32 1
  %26 = load i64, ptr %25, align 8, !tbaa !84
  %27 = getelementptr inbounds nuw i8, ptr %23, i64 %26
  store i8 0, ptr %27, align 1, !tbaa !12
  ret void
}

; Function Attrs: inlinehint nounwind uwtable
define internal i64 @st_mult(i64 noundef %0, i64 noundef %1) #2 {
  %3 = alloca i64, align 8
  %4 = alloca i64, align 8
  store i64 %0, ptr %3, align 8, !tbaa !61
  store i64 %1, ptr %4, align 8, !tbaa !61
  %5 = load i64, ptr %3, align 8, !tbaa !61
  %6 = icmp ne i64 %5, 0
  br i1 %6, label %7, label %15

7:                                                ; preds = %2
  %8 = load i64, ptr %4, align 8, !tbaa !61
  %9 = load i64, ptr %3, align 8, !tbaa !61
  %10 = udiv i64 -1, %9
  %11 = icmp ugt i64 %8, %10
  br i1 %11, label %12, label %15

12:                                               ; preds = %7
  %13 = load i64, ptr %3, align 8, !tbaa !61
  %14 = load i64, ptr %4, align 8, !tbaa !61
  call void (ptr, ...) @die(ptr noundef @.str.3, i64 noundef %13, i64 noundef %14) #11
  unreachable

15:                                               ; preds = %7, %2
  %16 = load i64, ptr %3, align 8, !tbaa !61
  %17 = load i64, ptr %4, align 8, !tbaa !61
  %18 = mul i64 %16, %17
  ret i64 %18
}

; Function Attrs: inlinehint nounwind uwtable
define internal i32 @const_error() #2 {
  ret i32 -1
}

; Function Attrs: nounwind uwtable
define internal i32 @island_config_callback(ptr noundef %0, ptr noundef %1, ptr noundef %2, ptr noundef %3) #0 {
  %5 = alloca i32, align 4
  %6 = alloca ptr, align 8
  %7 = alloca ptr, align 8
  %8 = alloca ptr, align 8
  %9 = alloca ptr, align 8
  %10 = alloca ptr, align 8
  %11 = alloca %struct.strbuf, align 8
  %12 = alloca i32, align 4
  store ptr %0, ptr %6, align 8, !tbaa !63
  store ptr %1, ptr %7, align 8, !tbaa !63
  store ptr %2, ptr %8, align 8, !tbaa !72
  store ptr %3, ptr %9, align 8, !tbaa !19
  call void @llvm.lifetime.start.p0(i64 8, ptr %10) #10
  %13 = load ptr, ptr %9, align 8, !tbaa !19
  store ptr %13, ptr %10, align 8, !tbaa !74
  %14 = load ptr, ptr %6, align 8, !tbaa !63
  %15 = call i32 @strcmp(ptr noundef %14, ptr noundef @.str.6) #12
  %16 = icmp ne i32 %15, 0
  br i1 %16, label %105, label %17

17:                                               ; preds = %4
  call void @llvm.lifetime.start.p0(i64 24, ptr %11) #10
  call void @llvm.memcpy.p0.p0.i64(ptr align 8 %11, ptr align 8 @__const.island_config_callback.re, i64 24, i1 false)
  %18 = load ptr, ptr %7, align 8, !tbaa !63
  %19 = icmp ne ptr %18, null
  br i1 %19, label %24, label %20

20:                                               ; preds = %17
  %21 = load ptr, ptr %6, align 8, !tbaa !63
  %22 = call i32 @config_error_nonbool(ptr noundef %21)
  %23 = call i32 @const_error()
  store i32 %23, ptr %5, align 4
  store i32 1, ptr %12, align 4
  br label %104

24:                                               ; preds = %17
  br label %25

25:                                               ; preds = %24
  %26 = load ptr, ptr %10, align 8, !tbaa !74
  %27 = getelementptr inbounds nuw %struct.island_load_data, ptr %26, i32 0, i32 2
  %28 = load i64, ptr %27, align 8, !tbaa !76
  %29 = add i64 %28, 1
  %30 = load ptr, ptr %10, align 8, !tbaa !74
  %31 = getelementptr inbounds nuw %struct.island_load_data, ptr %30, i32 0, i32 3
  %32 = load i64, ptr %31, align 8, !tbaa !77
  %33 = icmp ugt i64 %29, %32
  br i1 %33, label %34, label %73

34:                                               ; preds = %25
  %35 = load ptr, ptr %10, align 8, !tbaa !74
  %36 = getelementptr inbounds nuw %struct.island_load_data, ptr %35, i32 0, i32 3
  %37 = load i64, ptr %36, align 8, !tbaa !77
  %38 = add i64 %37, 16
  %39 = mul i64 %38, 3
  %40 = udiv i64 %39, 2
  %41 = load ptr, ptr %10, align 8, !tbaa !74
  %42 = getelementptr inbounds nuw %struct.island_load_data, ptr %41, i32 0, i32 2
  %43 = load i64, ptr %42, align 8, !tbaa !76
  %44 = add i64 %43, 1
  %45 = icmp ult i64 %40, %44
  br i1 %45, label %46, label %53

46:                                               ; preds = %34
  %47 = load ptr, ptr %10, align 8, !tbaa !74
  %48 = getelementptr inbounds nuw %struct.island_load_data, ptr %47, i32 0, i32 2
  %49 = load i64, ptr %48, align 8, !tbaa !76
  %50 = add i64 %49, 1
  %51 = load ptr, ptr %10, align 8, !tbaa !74
  %52 = getelementptr inbounds nuw %struct.island_load_data, ptr %51, i32 0, i32 3
  store i64 %50, ptr %52, align 8, !tbaa !77
  br label %62

53:                                               ; preds = %34
  %54 = load ptr, ptr %10, align 8, !tbaa !74
  %55 = getelementptr inbounds nuw %struct.island_load_data, ptr %54, i32 0, i32 3
  %56 = load i64, ptr %55, align 8, !tbaa !77
  %57 = add i64 %56, 16
  %58 = mul i64 %57, 3
  %59 = udiv i64 %58, 2
  %60 = load ptr, ptr %10, align 8, !tbaa !74
  %61 = getelementptr inbounds nuw %struct.island_load_data, ptr %60, i32 0, i32 3
  store i64 %59, ptr %61, align 8, !tbaa !77
  br label %62

62:                                               ; preds = %53, %46
  %63 = load ptr, ptr %10, align 8, !tbaa !74
  %64 = getelementptr inbounds nuw %struct.island_load_data, ptr %63, i32 0, i32 1
  %65 = load ptr, ptr %64, align 8, !tbaa !78
  %66 = load ptr, ptr %10, align 8, !tbaa !74
  %67 = getelementptr inbounds nuw %struct.island_load_data, ptr %66, i32 0, i32 3
  %68 = load i64, ptr %67, align 8, !tbaa !77
  %69 = call i64 @st_mult(i64 noundef 64, i64 noundef %68)
  %70 = call ptr @xrealloc(ptr noundef %65, i64 noundef %69)
  %71 = load ptr, ptr %10, align 8, !tbaa !74
  %72 = getelementptr inbounds nuw %struct.island_load_data, ptr %71, i32 0, i32 1
  store ptr %70, ptr %72, align 8, !tbaa !78
  br label %73

73:                                               ; preds = %62, %25
  br label %74

74:                                               ; preds = %73
  br label %75

75:                                               ; preds = %74
  %76 = load ptr, ptr %7, align 8, !tbaa !63
  %77 = load i8, ptr %76, align 1, !tbaa !12
  %78 = sext i8 %77 to i32
  %79 = icmp ne i32 %78, 94
  br i1 %79, label %80, label %81

80:                                               ; preds = %75
  call void @strbuf_addch(ptr noundef %11, i32 noundef 94)
  br label %81

81:                                               ; preds = %80, %75
  %82 = load ptr, ptr %7, align 8, !tbaa !63
  call void @strbuf_addstr(ptr noundef %11, ptr noundef %82)
  %83 = load ptr, ptr %10, align 8, !tbaa !74
  %84 = getelementptr inbounds nuw %struct.island_load_data, ptr %83, i32 0, i32 1
  %85 = load ptr, ptr %84, align 8, !tbaa !78
  %86 = load ptr, ptr %10, align 8, !tbaa !74
  %87 = getelementptr inbounds nuw %struct.island_load_data, ptr %86, i32 0, i32 2
  %88 = load i64, ptr %87, align 8, !tbaa !76
  %89 = getelementptr inbounds nuw %struct.re_pattern_buffer, ptr %85, i64 %88
  %90 = getelementptr inbounds nuw %struct.strbuf, ptr %11, i32 0, i32 2
  %91 = load ptr, ptr %90, align 8, !tbaa !79
  %92 = call i32 @regcomp(ptr noundef %89, ptr noundef %91, i32 noundef 1)
  %93 = icmp ne i32 %92, 0
  br i1 %93, label %94, label %99

94:                                               ; preds = %81
  %95 = call ptr @_(ptr noundef @.str.7)
  %96 = load ptr, ptr %6, align 8, !tbaa !63
  %97 = getelementptr inbounds nuw %struct.strbuf, ptr %11, i32 0, i32 2
  %98 = load ptr, ptr %97, align 8, !tbaa !79
  call void (ptr, ...) @die(ptr noundef %95, ptr noundef %96, ptr noundef %98) #11
  unreachable

99:                                               ; preds = %81
  call void @strbuf_release(ptr noundef %11)
  %100 = load ptr, ptr %10, align 8, !tbaa !74
  %101 = getelementptr inbounds nuw %struct.island_load_data, ptr %100, i32 0, i32 2
  %102 = load i64, ptr %101, align 8, !tbaa !76
  %103 = add i64 %102, 1
  store i64 %103, ptr %101, align 8, !tbaa !76
  store i32 0, ptr %5, align 4
  store i32 1, ptr %12, align 4
  br label %104

104:                                              ; preds = %99, %20
  call void @llvm.lifetime.end.p0(i64 24, ptr %11) #10
  br label %114

105:                                              ; preds = %4
  %106 = load ptr, ptr %6, align 8, !tbaa !63
  %107 = call i32 @strcmp(ptr noundef %106, ptr noundef @.str.8) #12
  %108 = icmp ne i32 %107, 0
  br i1 %108, label %113, label %109

109:                                              ; preds = %105
  %110 = load ptr, ptr %6, align 8, !tbaa !63
  %111 = load ptr, ptr %7, align 8, !tbaa !63
  %112 = call i32 @git_config_string(ptr noundef @core_island_name, ptr noundef %110, ptr noundef %111)
  store i32 %112, ptr %5, align 4
  store i32 1, ptr %12, align 4
  br label %114

113:                                              ; preds = %105
  store i32 0, ptr %5, align 4
  store i32 1, ptr %12, align 4
  br label %114

114:                                              ; preds = %113, %109, %104
  call void @llvm.lifetime.end.p0(i64 8, ptr %10) #10
  %115 = load i32, ptr %5, align 4
  ret i32 %115
}