; Function Attrs: nounwind uwtable
define internal i32 @island_config_callback(ptr noundef %0, ptr noundef %1, ptr readnone captures(none) %2, ptr noundef captures(none) %3) #3 {
  %5 = alloca %struct.strbuf, align 8
  %6 = tail call i32 @strcmp(ptr noundef nonnull dereferenceable(1) %0, ptr noundef nonnull dereferenceable(12) @.str.6) #19
  %.not = icmp eq i32 %6, 0
  br i1 %.not, label %7, label %50

7:                                                ; preds = %4
  call void @llvm.lifetime.start.p0(i64 24, ptr nonnull %5) #17
  call void @llvm.memcpy.p0.p0.i64(ptr noundef nonnull align 8 dereferenceable(24) %5, ptr noundef nonnull align 8 dereferenceable(24) @__const.find_island_for_ref.island_name, i64 24, i1 false)
  %.not28 = icmp eq ptr %1, null
  br i1 %.not28, label %8, label %10

8:                                                ; preds = %7
  %9 = tail call i32 @config_error_nonbool(ptr noundef nonnull %0) #17
  br label %49

10:                                               ; preds = %7
  %11 = getelementptr inbounds nuw i8, ptr %3, i64 16
  %12 = load i64, ptr %11, align 8, !tbaa !59
  %13 = add i64 %12, 1
  %14 = getelementptr inbounds nuw i8, ptr %3, i64 24
  %15 = load i64, ptr %14, align 8, !tbaa !90
  %16 = icmp ugt i64 %13, %15
  br i1 %16, label %17, label %26

17:                                               ; preds = %10
  %18 = mul i64 %15, 3
  %19 = add i64 %18, 48
  %20 = lshr i64 %19, 1
  %. = tail call i64 @llvm.umax.i64(i64 %20, i64 %13)
  store i64 %., ptr %14, align 8, !tbaa !90
  %mul.ov.i = icmp ugt i64 %., 288230376151711743
  br i1 %mul.ov.i, label %21, label %st_mult.exit

21:                                               ; preds = %17
  tail call void (ptr, ...) @die(ptr noundef nonnull @.str.3, i64 noundef 64, i64 noundef %.) #18
  unreachable

st_mult.exit:                                     ; preds = %17
  %22 = getelementptr inbounds nuw i8, ptr %3, i64 8
  %23 = load ptr, ptr %22, align 8, !tbaa !60
  %24 = shl nuw i64 %., 6
  %25 = tail call ptr @xrealloc(ptr noundef %23, i64 noundef %24) #17
  store ptr %25, ptr %22, align 8, !tbaa !60
  br label %26

26:                                               ; preds = %st_mult.exit, %10
  %27 = load i8, ptr %1, align 1, !tbaa !18
  %.not29 = icmp eq i8 %27, 94
  br i1 %.not29, label %34, label %strbuf_addch.exit

strbuf_addch.exit:                                ; preds = %26
  call void @strbuf_grow(ptr noundef nonnull %5, i64 noundef 1) #17
  %.phi.trans.insert = getelementptr inbounds nuw i8, ptr %5, i64 16
  %.pre = load ptr, ptr %.phi.trans.insert, align 8, !tbaa !91
  %.phi.trans.insert.i = getelementptr inbounds nuw i8, ptr %5, i64 8
  %.pre.i = load i64, ptr %.phi.trans.insert.i, align 8, !tbaa !93
  %.pre7.i = add i64 %.pre.i, 1
  %28 = getelementptr inbounds nuw i8, ptr %5, i64 16
  %29 = getelementptr inbounds nuw i8, ptr %5, i64 8
  store i64 %.pre7.i, ptr %29, align 8, !tbaa !93
  %30 = getelementptr inbounds nuw i8, ptr %.pre, i64 %.pre.i
  store i8 94, ptr %30, align 1, !tbaa !18
  %31 = load ptr, ptr %28, align 8, !tbaa !91
  %32 = load i64, ptr %29, align 8, !tbaa !93
  %33 = getelementptr inbounds nuw i8, ptr %31, i64 %32
  store i8 0, ptr %33, align 1, !tbaa !18
  br label %34

34:                                               ; preds = %strbuf_addch.exit, %26
  %35 = call i64 @strlen(ptr noundef nonnull dereferenceable(1) %1) #19
  call void @strbuf_add(ptr noundef nonnull %5, ptr noundef nonnull %1, i64 noundef %35) #17
  %36 = getelementptr inbounds nuw i8, ptr %3, i64 8
  %37 = load ptr, ptr %36, align 8, !tbaa !60
  %38 = load i64, ptr %11, align 8, !tbaa !59
  %39 = getelementptr inbounds nuw %struct.re_pattern_buffer, ptr %37, i64 %38
  %40 = getelementptr inbounds nuw i8, ptr %5, i64 16
  %41 = load ptr, ptr %40, align 8, !tbaa !91
  %42 = call i32 @regcomp(ptr noundef %39, ptr noundef %41, i32 noundef 1) #17
  %.not30 = icmp eq i32 %42, 0
  br i1 %.not30, label %46, label %43

43:                                               ; preds = %34
  %44 = call fastcc ptr @_(ptr noundef nonnull @.str.7)
  %45 = load ptr, ptr %40, align 8, !tbaa !91
  call void (ptr, ...) @die(ptr noundef %44, ptr noundef nonnull %0, ptr noundef %45) #18
  unreachable

46:                                               ; preds = %34
  call void @strbuf_release(ptr noundef nonnull %5) #17
  %47 = load i64, ptr %11, align 8, !tbaa !59
  %48 = add i64 %47, 1
  store i64 %48, ptr %11, align 8, !tbaa !59
  br label %49

49:                                               ; preds = %46, %8
  %.0 = phi i32 [ 0, %46 ], [ -1, %8 ]
  call void @llvm.lifetime.end.p0(i64 24, ptr nonnull %5) #17
  br label %54

50:                                               ; preds = %4
  %51 = tail call i32 @strcmp(ptr noundef nonnull dereferenceable(1) %0, ptr noundef nonnull dereferenceable(16) @.str.8) #19
  %.not31 = icmp eq i32 %51, 0
  br i1 %.not31, label %52, label %54

52:                                               ; preds = %50
  %53 = tail call i32 @git_config_string(ptr noundef nonnull @core_island_name, ptr noundef nonnull %0, ptr noundef %1) #17
  br label %54

54:                                               ; preds = %50, %52, %49
  %.1 = phi i32 [ %53, %52 ], [ %.0, %49 ], [ 0, %50 ]
  ret i32 %.1
}